target datalayout = "e-m:e-p270:32:32-p271:32:32-p272:64:64-i64:64-i128:128-f80:128-n8:16:32:64-S128"
target triple = "x86_64-unknown-linux-gnu"

%"class.icu_75::UMutex" = type { [40 x i8], %"struct.std::atomic", ptr }
%"struct.std::atomic" = type { %"struct.std::__atomic_base" }
%"struct.std::__atomic_base" = type { ptr }
%"class.icu_75::SimpleTimeZone" = type { %"class.icu_75::BasicTimeZone", i8, i8, i8, i32, i32, i32, i8, i8, i8, i32, i32, i32, i8, i32, i32, i32, i8, ptr, ptr, ptr, ptr }
%"class.icu_75::BasicTimeZone" = type { %"class.icu_75::TimeZone" }
%"class.icu_75::TimeZone" = type { %"class.icu_75::UObject", %"class.icu_75::UnicodeString" }
%"class.icu_75::UObject" = type { ptr }
%"class.icu_75::UnicodeString" = type { %"class.icu_75::Replaceable", %"union.icu_75::UnicodeString::StackBufferOrFields" }
%"class.icu_75::Replaceable" = type { %"class.icu_75::UObject" }
%"union.icu_75::UnicodeString::StackBufferOrFields" = type { %struct.anon.0, [32 x i8] }
%struct.anon.0 = type { i16, i32, i32, ptr }

@_ZZNK6icu_7514SimpleTimeZone20checkTransitionRulesER10UErrorCodeE5gLock = internal global %"class.icu_75::UMutex" zeroinitializer, align 8

; Function Attrs: mustprogress nounwind uwtable
define internal noundef signext i8 @_ZL9U_FAILURE10UErrorCode(i32 noundef %code) #0 {
entry:
  %code.addr = alloca i32, align 4
  store i32 %code, ptr %code.addr, align 4
  %0 = load i32, ptr %code.addr, align 4
  %cmp = icmp sgt i32 %0, 0
  %conv = zext i1 %cmp to i8
  ret i8 %conv
}

; Function Attrs: mustprogress uwtable
define void @_ZNK6icu_7514SimpleTimeZone20checkTransitionRulesER10UErrorCode(ptr noundef nonnull align 8 dereferenceable(160) %this, ptr noundef nonnull align 4 dereferenceable(4) %status) #1 align 2 {
entry:
  %this.addr = alloca ptr, align 8
  %status.addr = alloca ptr, align 8
  %ncThis = alloca ptr, align 8
  store ptr %this, ptr %this.addr, align 8
  store ptr %status, ptr %status.addr, align 8
  %this1 = load ptr, ptr %this.addr, align 8
  %0 = load ptr, ptr %status.addr, align 8
  %1 = load i32, ptr %0, align 4
  %call = call noundef signext i8 @_ZL9U_FAILURE10UErrorCode(i32 noundef %1)
  %tobool = icmp ne i8 %call, 0
  br i1 %tobool, label %if.then, label %if.end

if.then:                                          ; preds = %entry
  br label %return

if.end:                                           ; preds = %entry
  call void @umtx_lock_75(ptr noundef @_ZZNK6icu_7514SimpleTimeZone20checkTransitionRulesER10UErrorCodeE5gLock)
  %transitionRulesInitialized = getelementptr inbounds %"class.icu_75::SimpleTimeZone", ptr %this1, i32 0, i32 17
  %2 = load i8, ptr %transitionRulesInitialized, align 8
  %tobool2 = icmp ne i8 %2, 0
  br i1 %tobool2, label %if.end4, label %if.then3

if.then3:                                         ; preds = %if.end
  store ptr %this1, ptr %ncThis, align 8
  %3 = load ptr, ptr %ncThis, align 8
  %4 = load ptr, ptr %status.addr, align 8
  call void @_ZN6icu_7514SimpleTimeZone19initTransitionRulesER10UErrorCode(ptr noundef nonnull align 8 dereferenceable(160) %3, ptr noundef nonnull align 4 dereferenceable(4) %4)
  br label %if.end4

if.end4:                                          ; preds = %if.then3, %if.end
  call void @umtx_unlock_75(ptr noundef @_ZZNK6icu_7514SimpleTimeZone20checkTransitionRulesER10UErrorCodeE5gLock)
  br label %return

return:                                           ; preds = %if.end4, %if.then
  ret void
}

; Function Attrs: mustprogress uwtable
define noundef signext i8 @_ZNK6icu_7514SimpleTimeZone17getNextTransitionEdaRNS_18TimeZoneTransitionE(ptr noundef nonnull align 8 dereferenceable(160) %this, double noundef %base, i8 noundef signext %inclusive, ptr noundef nonnull align 8 dereferenceable(32) %result) unnamed_addr #1 align 2 {
entry:
  %retval = alloca i8, align 1
  %this.addr = alloca ptr, align 8
  %base.addr = alloca double, align 8
  %inclusive.addr = alloca i8, align 1
  %result.addr = alloca ptr, align 8
  %status = alloca i32, align 4
  %firstTransitionTime = alloca double, align 8
  %stdDate = alloca double, align 8
  %dstDate = alloca double, align 8
  %stdAvail = alloca i8, align 1
  %dstAvail = alloca i8, align 1
  store ptr %this, ptr %this.addr, align 8
  store double %base, ptr %base.addr, align 8
  store i8 %inclusive, ptr %inclusive.addr, align 1
  store ptr %result, ptr %result.addr, align 8
  %this1 = load ptr, ptr %this.addr, align 8
  %useDaylight = getelementptr inbounds %"class.icu_75::SimpleTimeZone", ptr %this1, i32 0, i32 13
  %0 = load i8, ptr %useDaylight, align 8
  %tobool = icmp ne i8 %0, 0
  br i1 %tobool, label %if.end, label %if.then

if.then:                                          ; preds = %entry
  store i8 0, ptr %retval, align 1
  br label %return

if.end:                                           ; preds = %entry
  store i32 0, ptr %status, align 4
  call void @_ZNK6icu_7514SimpleTimeZone20checkTransitionRulesER10UErrorCode(ptr noundef nonnull align 8 dereferenceable(160) %this1, ptr noundef nonnull align 4 dereferenceable(4) %status)
  %1 = load i32, ptr %status, align 4
  %call = call noundef signext i8 @_ZL9U_FAILURE10UErrorCode(i32 noundef %1)
  %tobool2 = icmp ne i8 %call, 0
  br i1 %tobool2, label %if.then3, label %if.end4

if.then3:                                         ; preds = %if.end
  store i8 0, ptr %retval, align 1
  br label %return

if.end4:                                          ; preds = %if.end
  %firstTransition = getelementptr inbounds %"class.icu_75::SimpleTimeZone", ptr %this1, i32 0, i32 19
  %2 = load ptr, ptr %firstTransition, align 8
  %call5 = call noundef double @_ZNK6icu_7518TimeZoneTransition7getTimeEv(ptr noundef nonnull align 8 dereferenceable(32) %2)
  store double %call5, ptr %firstTransitionTime, align 8
  %3 = load double, ptr %base.addr, align 8
  %4 = load double, ptr %firstTransitionTime, align 8
  %cmp = fcmp olt double %3, %4
  br i1 %cmp, label %if.then8, label %lor.lhs.false

lor.lhs.false:                                    ; preds = %if.end4
  %5 = load i8, ptr %inclusive.addr, align 1
  %tobool6 = icmp ne i8 %5, 0
  br i1 %tobool6, label %land.lhs.true, label %if.end11

land.lhs.true:                                    ; preds = %lor.lhs.false
  %6 = load double, ptr %base.addr, align 8
  %7 = load double, ptr %firstTransitionTime, align 8
  %cmp7 = fcmp oeq double %6, %7
  br i1 %cmp7, label %if.then8, label %if.end11

if.then8:                                         ; preds = %land.lhs.true, %if.end4
  %firstTransition9 = getelementptr inbounds %"class.icu_75::SimpleTimeZone", ptr %this1, i32 0, i32 19
  %8 = load ptr, ptr %firstTransition9, align 8
  %9 = load ptr, ptr %result.addr, align 8
  %call10 = call noundef nonnull align 8 dereferenceable(32) ptr @_ZN6icu_7518TimeZoneTransitionaSERKS0_(ptr noundef nonnull align 8 dereferenceable(32) %9, ptr noundef nonnull align 8 dereferenceable(32) %8)
  br label %if.end11

if.end11:                                         ; preds = %if.then8, %land.lhs.true, %lor.lhs.false
  %stdRule = getelementptr inbounds %"class.icu_75::SimpleTimeZone", ptr %this1, i32 0, i32 20
  %10 = load ptr, ptr %stdRule, align 8
  %11 = load double, ptr %base.addr, align 8
  %dstRule = getelementptr inbounds %"class.icu_75::SimpleTimeZone", ptr %this1, i32 0, i32 21
  %12 = load ptr, ptr %dstRule, align 8
  %call12 = call noundef i32 @_ZNK6icu_7512TimeZoneRule12getRawOffsetEv(ptr noundef nonnull align 8 dereferenceable(80) %12)
  %dstRule13 = getelementptr inbounds %"class.icu_75::SimpleTimeZone", ptr %this1, i32 0, i32 21
  %13 = load ptr, ptr %dstRule13, align 8
  %call14 = call noundef i32 @_ZNK6icu_7512TimeZoneRule13getDSTSavingsEv(ptr noundef nonnull align 8 dereferenceable(80) %13)
  %14 = load i8, ptr %inclusive.addr, align 1
  %vtable = load ptr, ptr %10, align 8
  %vfn = getelementptr inbounds ptr, ptr %vtable, i64 9
  %15 = load ptr, ptr %vfn, align 8
  %call15 = call noundef signext i8 %15(ptr noundef nonnull align 8 dereferenceable(96) %10, double noundef %11, i32 noundef %call12, i32 noundef %call14, i8 noundef signext %14, ptr noundef nonnull align 8 dereferenceable(8) %stdDate)
  store i8 %call15, ptr %stdAvail, align 1
  %dstRule16 = getelementptr inbounds %"class.icu_75::SimpleTimeZone", ptr %this1, i32 0, i32 21
  %16 = load ptr, ptr %dstRule16, align 8
  %17 = load double, ptr %base.addr, align 8
  %stdRule17 = getelementptr inbounds %"class.icu_75::SimpleTimeZone", ptr %this1, i32 0, i32 20
  %18 = load ptr, ptr %stdRule17, align 8
  %call18 = call noundef i32 @_ZNK6icu_7512TimeZoneRule12getRawOffsetEv(ptr noundef nonnull align 8 dereferenceable(80) %18)
  %stdRule19 = getelementptr inbounds %"class.icu_75::SimpleTimeZone", ptr %this1, i32 0, i32 20
  %19 = load ptr, ptr %stdRule19, align 8
  %call20 = call noundef i32 @_ZNK6icu_7512TimeZoneRule13getDSTSavingsEv(ptr noundef nonnull align 8 dereferenceable(80) %19)
  %20 = load i8, ptr %inclusive.addr, align 1
  %vtable21 = load ptr, ptr %16, align 8
  %vfn22 = getelementptr inbounds ptr, ptr %vtable21, i64 9
  %21 = load ptr, ptr %vfn22, align 8
  %call23 = call noundef signext i8 %21(ptr noundef nonnull align 8 dereferenceable(96) %16, double noundef %17, i32 noundef %call18, i32 noundef %call20, i8 noundef signext %20, ptr noundef nonnull align 8 dereferenceable(8) %dstDate)
  store i8 %call23, ptr %dstAvail, align 1
  %22 = load i8, ptr %stdAvail, align 1
  %tobool24 = icmp ne i8 %22, 0
  br i1 %tobool24, label %land.lhs.true25, label %if.end32

land.lhs.true25:                                  ; preds = %if.end11
  %23 = load i8, ptr %dstAvail, align 1
  %tobool26 = icmp ne i8 %23, 0
  br i1 %tobool26, label %lor.lhs.false27, label %if.then29

lor.lhs.false27:                                  ; preds = %land.lhs.true25
  %24 = load double, ptr %stdDate, align 8
  %25 = load double, ptr %dstDate, align 8
  %cmp28 = fcmp olt double %24, %25
  br i1 %cmp28, label %if.then29, label %if.end32

if.then29:                                        ; preds = %lor.lhs.false27, %land.lhs.true25
  %26 = load ptr, ptr %result.addr, align 8
  %27 = load double, ptr %stdDate, align 8
  call void @_ZN6icu_7518TimeZoneTransition7setTimeEd(ptr noundef nonnull align 8 dereferenceable(32) %26, double noundef %27)
  %28 = load ptr, ptr %result.addr, align 8
  %dstRule30 = getelementptr inbounds %"class.icu_75::SimpleTimeZone", ptr %this1, i32 0, i32 21
  %29 = load ptr, ptr %dstRule30, align 8
  call void @_ZN6icu_7518TimeZoneTransition7setFromERKNS_12TimeZoneRuleE(ptr noundef nonnull align 8 dereferenceable(32) %28, ptr noundef nonnull align 8 dereferenceable(80) %29)
  %30 = load ptr, ptr %result.addr, align 8
  %stdRule31 = getelementptr inbounds %"class.icu_75::SimpleTimeZone", ptr %this1, i32 0, i32 20
  %31 = load ptr, ptr %stdRule31, align 8
  call void @_ZN6icu_7518TimeZoneTransition5setToERKNS_12TimeZoneRuleE(ptr noundef nonnull align 8 dereferenceable(32) %30, ptr noundef nonnull align 8 dereferenceable(80) %31)
  store i8 1, ptr %retval, align 1
  br label %return

if.end32:                                         ; preds = %lor.lhs.false27, %if.end11
  %32 = load i8, ptr %dstAvail, align 1
  %tobool33 = icmp ne i8 %32, 0
  br i1 %tobool33, label %land.lhs.true34, label %if.end41

land.lhs.true34:                                  ; preds = %if.end32
  %33 = load i8, ptr %stdAvail, align 1
  %tobool35 = icmp ne i8 %33, 0
  br i1 %tobool35, label %lor.lhs.false36, label %if.then38

lor.lhs.false36:                                  ; preds = %land.lhs.true34
  %34 = load double, ptr %dstDate, align 8
  %35 = load double, ptr %stdDate, align 8
  %cmp37 = fcmp olt double %34, %35
  br i1 %cmp37, label %if.then38, label %if.end41

if.then38:                                        ; preds = %lor.lhs.false36, %land.lhs.true34
  %36 = load ptr, ptr %result.addr, align 8
  %37 = load double, ptr %dstDate, align 8
  call void @_ZN6icu_7518TimeZoneTransition7setTimeEd(ptr noundef nonnull align 8 dereferenceable(32) %36, double noundef %37)
  %38 = load ptr, ptr %result.addr, align 8
  %stdRule39 = getelementptr inbounds %"class.icu_75::SimpleTimeZone", ptr %this1, i32 0, i32 20
  %39 = load ptr, ptr %stdRule39, align 8
  call void @_ZN6icu_7518TimeZoneTransition7setFromERKNS_12TimeZoneRuleE(ptr noundef nonnull align 8 dereferenceable(32) %38, ptr noundef nonnull align 8 dereferenceable(80) %39)
  %40 = load ptr, ptr %result.addr, align 8
  %dstRule40 = getelementptr inbounds %"class.icu_75::SimpleTimeZone", ptr %this1, i32 0, i32 21
  %41 = load ptr, ptr %dstRule40, align 8
  call void @_ZN6icu_7518TimeZoneTransition5setToERKNS_12TimeZoneRuleE(ptr noundef nonnull align 8 dereferenceable(32) %40, ptr noundef nonnull align 8 dereferenceable(80) %41)
  store i8 1, ptr %retval, align 1
  br label %return

if.end41:                                         ; preds = %lor.lhs.false36, %if.end32
  store i8 0, ptr %retval, align 1
  br label %return

return:                                           ; preds = %if.end41, %if.then38, %if.then29, %if.then3, %if.then
  %42 = load i8, ptr %retval, align 1
  ret i8 %42
}