; Function Attrs: mustprogress uwtable
define noundef signext i8 @_ZNK6icu_7514SimpleTimeZone17getNextTransitionEdaRNS_18TimeZoneTransitionE(ptr noundef nonnull align 8 dereferenceable(160) %this, double noundef %base, i8 noundef signext %inclusive, ptr noundef nonnull align 8 dereferenceable(32) %result) unnamed_addr #1 align 2 {
entry:
  %status = alloca i32, align 4
  %stdDate = alloca double, align 8
  %dstDate = alloca double, align 8
  %useDaylight = getelementptr inbounds i8, ptr %this, i64 104
  %0 = load i8, ptr %useDaylight, align 8
  %tobool.not = icmp eq i8 %0, 0
  br i1 %tobool.not, label %return, label %if.end.i

if.end.i:                                         ; preds = %entry
  store i32 0, ptr %status, align 4
  tail call void @umtx_lock_75(ptr noundef nonnull @_ZZNK6icu_7514SimpleTimeZone20checkTransitionRulesER10UErrorCodeE5gLock)
  %transitionRulesInitialized.i = getelementptr inbounds i8, ptr %this, i64 120
  %1 = load i8, ptr %transitionRulesInitialized.i, align 8
  %tobool2.not.i = icmp eq i8 %1, 0
  br i1 %tobool2.not.i, label %_ZNK6icu_7514SimpleTimeZone20checkTransitionRulesER10UErrorCode.exit, label %_ZNK6icu_7514SimpleTimeZone20checkTransitionRulesER10UErrorCode.exit.thread

_ZNK6icu_7514SimpleTimeZone20checkTransitionRulesER10UErrorCode.exit.thread: ; preds = %if.end.i
  tail call void @umtx_unlock_75(ptr noundef nonnull @_ZZNK6icu_7514SimpleTimeZone20checkTransitionRulesER10UErrorCodeE5gLock)
  br label %if.end4

_ZNK6icu_7514SimpleTimeZone20checkTransitionRulesER10UErrorCode.exit: ; preds = %if.end.i
  call void @_ZN6icu_7514SimpleTimeZone19initTransitionRulesER10UErrorCode(ptr noundef nonnull align 8 dereferenceable(160) %this, ptr noundef nonnull align 4 dereferenceable(4) %status)
  %.pre = load i32, ptr %status, align 4
  %2 = icmp slt i32 %.pre, 1
  tail call void @umtx_unlock_75(ptr noundef nonnull @_ZZNK6icu_7514SimpleTimeZone20checkTransitionRulesER10UErrorCodeE5gLock)
  br i1 %2, label %if.end4, label %return

if.end4:                                          ; preds = %_ZNK6icu_7514SimpleTimeZone20checkTransitionRulesER10UErrorCode.exit.thread, %_ZNK6icu_7514SimpleTimeZone20checkTransitionRulesER10UErrorCode.exit
  %firstTransition = getelementptr inbounds i8, ptr %this, i64 136
  %3 = load ptr, ptr %firstTransition, align 8
  %call5 = tail call noundef double @_ZNK6icu_7518TimeZoneTransition7getTimeEv(ptr noundef nonnull align 8 dereferenceable(32) %3)
  %cmp = fcmp ogt double %call5, %base
  br i1 %cmp, label %if.then8, label %lor.lhs.false

lor.lhs.false:                                    ; preds = %if.end4
  %tobool6.not = icmp ne i8 %inclusive, 0
  %cmp7 = fcmp oeq double %call5, %base
  %or.cond = and i1 %tobool6.not, %cmp7
  br i1 %or.cond, label %if.then8, label %if.end11

if.then8:                                         ; preds = %lor.lhs.false, %if.end4
  %4 = load ptr, ptr %firstTransition, align 8
  %call10 = tail call noundef nonnull align 8 dereferenceable(32) ptr @_ZN6icu_7518TimeZoneTransitionaSERKS0_(ptr noundef nonnull align 8 dereferenceable(32) %result, ptr noundef nonnull align 8 dereferenceable(32) %4)
  br label %if.end11

if.end11:                                         ; preds = %if.then8, %lor.lhs.false
  %stdRule = getelementptr inbounds i8, ptr %this, i64 144
  %5 = load ptr, ptr %stdRule, align 8
  %dstRule = getelementptr inbounds i8, ptr %this, i64 152
  %6 = load ptr, ptr %dstRule, align 8
  %call12 = tail call noundef i32 @_ZNK6icu_7512TimeZoneRule12getRawOffsetEv(ptr noundef nonnull align 8 dereferenceable(80) %6)
  %7 = load ptr, ptr %dstRule, align 8
  %call14 = tail call noundef i32 @_ZNK6icu_7512TimeZoneRule13getDSTSavingsEv(ptr noundef nonnull align 8 dereferenceable(80) %7)
  %vtable = load ptr, ptr %5, align 8
  %vfn = getelementptr inbounds i8, ptr %vtable, i64 72
  %8 = load ptr, ptr %vfn, align 8
  %call15 = call noundef signext i8 %8(ptr noundef nonnull align 8 dereferenceable(96) %5, double noundef %base, i32 noundef %call12, i32 noundef %call14, i8 noundef signext %inclusive, ptr noundef nonnull align 8 dereferenceable(8) %stdDate)
  %9 = load ptr, ptr %dstRule, align 8
  %10 = load ptr, ptr %stdRule, align 8
  %call18 = call noundef i32 @_ZNK6icu_7512TimeZoneRule12getRawOffsetEv(ptr noundef nonnull align 8 dereferenceable(80) %10)
  %11 = load ptr, ptr %stdRule, align 8
  %call20 = call noundef i32 @_ZNK6icu_7512TimeZoneRule13getDSTSavingsEv(ptr noundef nonnull align 8 dereferenceable(80) %11)
  %vtable21 = load ptr, ptr %9, align 8
  %vfn22 = getelementptr inbounds i8, ptr %vtable21, i64 72
  %12 = load ptr, ptr %vfn22, align 8
  %call23 = call noundef signext i8 %12(ptr noundef nonnull align 8 dereferenceable(96) %9, double noundef %base, i32 noundef %call18, i32 noundef %call20, i8 noundef signext %inclusive, ptr noundef nonnull align 8 dereferenceable(8) %dstDate)
  %tobool24.not = icmp eq i8 %call15, 0
  %tobool33.not = icmp eq i8 %call23, 0
  br i1 %tobool24.not, label %if.end32, label %land.lhs.true25

land.lhs.true25:                                  ; preds = %if.end11
  %.pre16 = load double, ptr %stdDate, align 8
  br i1 %tobool33.not, label %return.sink.split, label %lor.lhs.false27

lor.lhs.false27:                                  ; preds = %land.lhs.true25
  %13 = load double, ptr %dstDate, align 8
  %cmp28 = fcmp olt double %.pre16, %13
  br i1 %cmp28, label %return.sink.split, label %lor.lhs.false36

if.end32:                                         ; preds = %if.end11
  br i1 %tobool33.not, label %return, label %if.end32.if.then38_crit_edge

if.end32.if.then38_crit_edge:                     ; preds = %if.end32
  %.pre17 = load double, ptr %dstDate, align 8
  br label %return.sink.split

lor.lhs.false36:                                  ; preds = %lor.lhs.false27
  %cmp37 = fcmp olt double %13, %.pre16
  br i1 %cmp37, label %return.sink.split, label %return

return.sink.split:                                ; preds = %lor.lhs.false36, %if.end32.if.then38_crit_edge, %land.lhs.true25, %lor.lhs.false27
  %.sink = phi double [ %.pre16, %lor.lhs.false27 ], [ %.pre16, %land.lhs.true25 ], [ %.pre17, %if.end32.if.then38_crit_edge ], [ %13, %lor.lhs.false36 ]
  %stdRule.sink = phi ptr [ %dstRule, %lor.lhs.false27 ], [ %dstRule, %land.lhs.true25 ], [ %stdRule, %if.end32.if.then38_crit_edge ], [ %stdRule, %lor.lhs.false36 ]
  %dstRule.sink = phi ptr [ %stdRule, %lor.lhs.false27 ], [ %stdRule, %land.lhs.true25 ], [ %dstRule, %if.end32.if.then38_crit_edge ], [ %dstRule, %lor.lhs.false36 ]
  call void @_ZN6icu_7518TimeZoneTransition7setTimeEd(ptr noundef nonnull align 8 dereferenceable(32) %result, double noundef %.sink)
  %14 = load ptr, ptr %stdRule.sink, align 8
  call void @_ZN6icu_7518TimeZoneTransition7setFromERKNS_12TimeZoneRuleE(ptr noundef nonnull align 8 dereferenceable(32) %result, ptr noundef nonnull align 8 dereferenceable(80) %14)
  %15 = load ptr, ptr %dstRule.sink, align 8
  call void @_ZN6icu_7518TimeZoneTransition5setToERKNS_12TimeZoneRuleE(ptr noundef nonnull align 8 dereferenceable(32) %result, ptr noundef nonnull align 8 dereferenceable(80) %15)
  br label %return

return:                                           ; preds = %return.sink.split, %if.end32, %lor.lhs.false36, %_ZNK6icu_7514SimpleTimeZone20checkTransitionRulesER10UErrorCode.exit, %entry
  %retval.0 = phi i8 [ 0, %entry ], [ 0, %_ZNK6icu_7514SimpleTimeZone20checkTransitionRulesER10UErrorCode.exit ], [ 0, %lor.lhs.false36 ], [ 0, %if.end32 ], [ 1, %return.sink.split ]
  ret i8 %retval.0
}